; ModuleID = '36/666.c'
source_filename = "36/666.c"
target datalayout = "e-m:e-p270:32:32-p271:32:32-p272:64:64-i64:64-f80:128-n8:16:32:64-S128"
target triple = "x86_64-pc-linux-gnu"

@.str = private unnamed_addr constant [5 x i8] c"%s%s\00", align 1
@.str.1 = private unnamed_addr constant [4 x i8] c"%s\0A\00", align 1
@.str.2 = private unnamed_addr constant [4 x i8] c"YES\00", align 1
@.str.3 = private unnamed_addr constant [3 x i8] c"NO\00", align 1

; Function Attrs: noinline nounwind uwtable
define dso_local i32 @main() #0 {
  %1 = alloca i32, align 4
  %2 = alloca [256 x i32], align 16
  %3 = alloca i32, align 4
  %4 = alloca i32, align 4
  %5 = alloca [201 x i8], align 16
  %6 = alloca [201 x i8], align 16
  %7 = alloca i8*, align 8
  store i32 0, i32* %1, align 4
  %8 = bitcast [256 x i32]* %2 to i8*
  call void @llvm.memset.p0i8.i64(i8* align 16 %8, i8 0, i64 1024, i1 false)
  store i32 0, i32* %3, align 4
  store i32 0, i32* %4, align 4
  store i8* null, i8** %7, align 8
  %9 = getelementptr inbounds [201 x i8], [201 x i8]* %5, i64 0, i64 0
  %10 = getelementptr inbounds [201 x i8], [201 x i8]* %6, i64 0, i64 0
  %11 = call i32 (i8*, ...) @__isoc99_scanf(i8* getelementptr inbounds ([5 x i8], [5 x i8]* @.str, i64 0, i64 0), i8* %9, i8* %10)
  %12 = getelementptr inbounds [201 x i8], [201 x i8]* %5, i64 0, i64 0
  store i8* %12, i8** %7, align 8
  br label %13

13:                                               ; preds = %29, %0
  %14 = load i8*, i8** %7, align 8
  %15 = load i8, i8* %14, align 1
  %16 = icmp ne i8 %15, 0
  br i1 %16, label %17, label %32

17:                                               ; preds = %13
  %18 = load i8*, i8** %7, align 8
  %19 = load i8, i8* %18, align 1
  %20 = sext i8 %19 to i32
  %21 = sext i32 %20 to i64
  %22 = getelementptr inbounds [256 x i32], [256 x i32]* %2, i64 0, i64 %21
  %23 = load i32, i32* %22, align 4
  %24 = add nsw i32 %23, 1
  store i32 %24, i32* %22, align 4
  %25 = load i32, i32* %3, align 4
  %26 = add nsw i32 %25, 1
  store i32 %26, i32* %3, align 4
  %27 = load i32, i32* %4, align 4
  %28 = add nsw i32 %27, 1
  store i32 %28, i32* %4, align 4
  br label %29

29:                                               ; preds = %17
  %30 = load i8*, i8** %7, align 8
  %31 = getelementptr inbounds i8, i8* %30, i32 1
  store i8* %31, i8** %7, align 8
  br label %13

32:                                               ; preds = %13
  %33 = getelementptr inbounds [201 x i8], [201 x i8]* %6, i64 0, i64 0
  store i8* %33, i8** %7, align 8
  br label %34

34:                                               ; preds = %59, %32
  %35 = load i8*, i8** %7, align 8
  %36 = load i8, i8* %35, align 1
  %37 = icmp ne i8 %36, 0
  br i1 %37, label %38, label %62

38:                                               ; preds = %34
  %39 = load i8*, i8** %7, align 8
  %40 = load i8, i8* %39, align 1
  %41 = sext i8 %40 to i32
  %42 = sext i32 %41 to i64
  %43 = getelementptr inbounds [256 x i32], [256 x i32]* %2, i64 0, i64 %42
  %44 = load i32, i32* %43, align 4
  %45 = icmp sgt i32 %44, 0
  br i1 %45, label %46, label %56

46:                                               ; preds = %38
  %47 = load i8*, i8** %7, align 8
  %48 = load i8, i8* %47, align 1
  %49 = sext i8 %48 to i32
  %50 = sext i32 %49 to i64
  %51 = getelementptr inbounds [256 x i32], [256 x i32]* %2, i64 0, i64 %50
  %52 = load i32, i32* %51, align 4
  %53 = add nsw i32 %52, -1
  store i32 %53, i32* %51, align 4
  %54 = load i32, i32* %3, align 4
  %55 = add nsw i32 %54, -1
  store i32 %55, i32* %3, align 4
  br label %56

56:                                               ; preds = %46, %38
  %57 = load i32, i32* %4, align 4
  %58 = add nsw i32 %57, -1
  store i32 %58, i32* %4, align 4
  br label %59

59:                                               ; preds = %56
  %60 = load i8*, i8** %7, align 8
  %61 = getelementptr inbounds i8, i8* %60, i32 1
  store i8* %61, i8** %7, align 8
  br label %34

62:                                               ; preds = %34
  %63 = load i32, i32* %4, align 4
  %64 = icmp eq i32 %63, 0
  br i1 %64, label %65, label %68

65:                                               ; preds = %62
  %66 = load i32, i32* %3, align 4
  %67 = icmp eq i32 %66, 0
  br label %68

68:                                               ; preds = %65, %62
  %69 = phi i1 [ false, %62 ], [ %67, %65 ]
  %70 = zext i1 %69 to i64
  %71 = select i1 %69, i8* getelementptr inbounds ([4 x i8], [4 x i8]* @.str.2, i64 0, i64 0), i8* getelementptr inbounds ([3 x i8], [3 x i8]* @.str.3, i64 0, i64 0)
  %72 = call i32 (i8*, ...) @printf(i8* getelementptr inbounds ([4 x i8], [4 x i8]* @.str.1, i64 0, i64 0), i8* %71)
  ret i32 0
}

; Function Attrs: argmemonly nounwind willreturn
declare void @llvm.memset.p0i8.i64(i8* nocapture writeonly, i8, i64, i1 immarg) #1

declare dso_local i32 @__isoc99_scanf(i8*, ...) #2

declare dso_local i32 @printf(i8*, ...) #2


!llvm.module.flags = !{!0}
!llvm.ident = !{!1}

!0 = !{i32 1, !"wchar_size", i32 4}
!1 = !{!"clang version 10.0.0-4ubuntu1 "}
